; Function Attrs: nounwind sspstrong uwtable
define internal range(i64 1, -7) i64 @ossl_digest_copy(i64 noundef returned %0, i64 noundef %1) #0 {
  %3 = icmp eq i64 %0, 0
  %4 = and i64 %0, 7
  %5 = icmp ne i64 %4, 0
  %6 = or i1 %3, %5
  br i1 %6, label %RB_OBJ_FROZEN.exit.thread.i, label %RB_FL_ABLE.exit.i.i, !prof !21

RB_FL_ABLE.exit.i.i:                              ; preds = %2
  %7 = inttoptr i64 %0 to ptr
  %8 = load i64, ptr %7, align 8, !tbaa !10
  %9 = and i64 %8, 31
  %.not.i.i = icmp eq i64 %9, 27
  %10 = and i64 %8, 2048
  %11 = icmp ne i64 %10, 0
  %or.cond.i = or i1 %.not.i.i, %11
  br i1 %or.cond.i, label %RB_OBJ_FROZEN.exit.thread.i, label %rbimpl_RB_TYPE_P_fastpath.exit.i, !prof !22

RB_OBJ_FROZEN.exit.thread.i:                      ; preds = %RB_FL_ABLE.exit.i.i, %2
  tail call void @rb_error_frozen_object(i64 noundef %0) #5
  unreachable

rbimpl_RB_TYPE_P_fastpath.exit.i:                 ; preds = %RB_FL_ABLE.exit.i.i
  %12 = icmp ne i64 %9, 5
  %13 = and i64 %8, 49152
  %.not.i = icmp eq i64 %13, 0
  %or.cond8.i = or i1 %12, %.not.i
  br i1 %or.cond8.i, label %rb_check_frozen_inline.exit, label %14, !prof !23

14:                                               ; preds = %rbimpl_RB_TYPE_P_fastpath.exit.i
  tail call void @rb_str_modify(i64 noundef %0) #4
  br label %rb_check_frozen_inline.exit

rb_check_frozen_inline.exit:                      ; preds = %rbimpl_RB_TYPE_P_fastpath.exit.i, %14
  %15 = icmp eq i64 %0, %1
  br i1 %15, label %31, label %16

16:                                               ; preds = %rb_check_frozen_inline.exit
  %17 = tail call ptr @rb_check_typeddata(i64 noundef %0, ptr noundef nonnull @ossl_digest_type) #4
  %.not = icmp eq ptr %17, null
  br i1 %.not, label %18, label %23

18:                                               ; preds = %16
  %19 = tail call ptr @EVP_MD_CTX_new() #4
  %20 = getelementptr inbounds nuw i8, ptr %7, i64 32
  store ptr %19, ptr %20, align 8, !tbaa !12
  %.not18 = icmp eq ptr %19, null
  br i1 %.not18, label %21, label %23

21:                                               ; preds = %18
  %22 = load i64, ptr @eDigestError, align 8, !tbaa !6
  tail call void (i64, ptr, ...) @ossl_raise(i64 noundef %22, ptr noundef nonnull @.str.2) #5
  unreachable

23:                                               ; preds = %16, %18
  %.013 = phi ptr [ %17, %16 ], [ %19, %18 ]
  %24 = tail call ptr @rb_check_typeddata(i64 noundef %1, ptr noundef nonnull @ossl_digest_type) #4
  %.not19 = icmp eq ptr %24, null
  br i1 %.not19, label %25, label %27

25:                                               ; preds = %23
  %26 = load i64, ptr @rb_eRuntimeError, align 8, !tbaa !6
  tail call void (i64, ptr, ...) @ossl_raise(i64 noundef %26, ptr noundef nonnull @.str.1) #5
  unreachable

27:                                               ; preds = %23
  %28 = tail call i32 @EVP_MD_CTX_copy(ptr noundef nonnull %.013, ptr noundef nonnull %24) #4
  %.not20 = icmp eq i32 %28, 0
  br i1 %.not20, label %29, label %31

29:                                               ; preds = %27
  %30 = load i64, ptr @eDigestError, align 8, !tbaa !6
  tail call void (i64, ptr, ...) @ossl_raise(i64 noundef %30, ptr noundef null) #5
  unreachable

31:                                               ; preds = %27, %rb_check_frozen_inline.exit
  ret i64 %0
}